(lp0
I4
aI11
aI19
aI5
aI7
aI9
aI15
aI9
aI10
aI6
aI18
aI8
aI8
aI1
aI9
aI18
aI1
aI17
aI16
aI4
aI8
aI16
aI13
aI14
aI2
aI15
aI12
aI5
aI9
aI4
aI1
aI3
aI12
aI19
aI13
aI2
aI14
aI17
aI11
aI13
aI5
aI5
aI16
aI9
aI16
aI11
aI10
aI14
aI12
aI6
aI6
aI2
aI12
aI10
aI9
aI14
aI18
aI16
aI6
aI3
aI10
aI5
aI19
aI0
aI16
aI0
aI18
aI7
aI15
aI11
aI9
aI1
aI4
aI9
aI8
aI18
aI10
aI6
aI5
aI2
aI7
aI7
aI2
aI15
aI18
aI18
aI6
aI9
aI9
aI3
aI13
aI8
aI14
aI6
aI3
aI18
aI1
aI11
aI12
aI5
aI5
aI18
aI6
aI12
aI18
aI18
aI7
aI5
aI0
aI8
aI18
aI10
aI11
aI13
aI5
aI2
aI11
aI10
aI13
aI4
aI12
aI2
aI1
aI9
aI11
aI8
aI1
aI10
aI0
aI19
aI6
aI3
aI19
aI2
aI14
aI15
aI11
aI13
aI10
aI9
aI3
aI9
aI19
aI0
aI7
aI11
aI19
aI5
aI7
aI12
aI1
aI10
aI19
aI11
aI15
aI1
aI5
aI6
aI19
aI10
aI14
aI19
aI16
aI15
aI2
aI13
aI4
aI6
aI8
aI14
aI12
aI15
aI4
aI7
aI7
aI5
aI9
aI9
aI16
aI11
aI10
aI4
aI17
aI7
aI8
aI12
aI4
aI4
aI14
aI6
aI1
aI8
aI4
aI4
aI4
aI6
aI16
aI17
aI16
aI8
aI14
aI12
aI19
a.