(lp0
I12
aI8
aI5
aI1
aI8
aI10
aI4
aI12
aI11
aI9
aI4
aI15
aI6
aI7
aI16
aI9
aI14
aI15
aI17
aI1
aI7
aI19
aI4
aI17
aI1
aI17
aI14
aI9
aI13
aI16
aI17
aI2
aI19
aI16
aI17
aI6
aI12
aI3
aI12
aI14
aI13
aI2
aI1
aI8
aI5
aI18
aI3
aI10
aI9
aI3
aI19
aI12
aI7
aI7
aI13
aI15
aI14
aI9
aI11
aI2
aI11
aI2
aI7
aI17
aI19
aI2
aI4
aI0
aI15
aI14
aI4
aI4
aI16
aI8
aI13
aI12
aI17
aI3
aI12
aI17
aI19
aI0
aI17
aI12
aI19
aI19
aI13
aI13
aI3
aI1
aI6
aI18
aI14
aI16
aI12
aI0
aI14
aI10
aI1
aI12
aI13
aI7
aI10
aI3
aI16
aI2
aI9
aI16
aI16
aI2
aI13
aI14
aI14
aI3
aI17
aI19
aI2
aI8
aI8
aI12
aI3
aI6
aI6
aI19
aI2
aI10
aI2
aI4
aI2
aI6
aI12
aI15
aI16
aI13
aI12
aI1
aI18
aI11
aI3
aI1
aI4
aI19
aI0
aI1
aI9
aI17
aI13
aI4
aI3
aI16
aI16
aI17
aI8
aI16
aI10
aI13
aI5
aI14
aI13
aI0
aI8
aI11
aI14
aI15
aI5
aI8
aI16
aI13
aI10
aI8
aI9
aI2
aI7
aI6
aI0
aI8
aI12
aI7
aI11
aI1
aI12
aI8
aI1
aI6
aI19
aI1
aI13
aI14
aI7
aI1
aI7
aI8
aI4
aI15
aI0
aI5
aI14
aI1
aI7
aI4
aI5
aI4
aI16
aI6
aI3
a.