(lp0
I19
aI12
aI8
aI18
aI16
aI12
aI10
aI2
aI7
aI15
aI3
aI16
aI5
aI12
aI14
aI17
aI5
aI10
aI18
aI16
aI12
aI12
aI12
aI19
aI15
aI17
aI3
aI7
aI3
aI15
aI6
aI3
aI8
aI4
aI14
aI15
aI4
aI12
aI3
aI5
aI15
aI8
aI6
aI16
aI6
aI8
aI2
aI8
aI8
aI14
aI14
aI12
aI15
aI14
aI5
aI19
aI3
aI6
aI16
aI17
aI3
aI15
aI10
aI6
aI10
aI12
aI16
aI12
aI19
aI2
aI4
aI2
aI19
aI8
aI4
aI10
aI16
aI6
aI6
aI5
aI4
aI6
aI17
aI10
aI5
aI7
aI17
aI7
aI8
aI4
aI16
aI6
aI3
aI2
aI6
aI2
aI17
aI2
aI7
aI3
aI19
aI12
aI10
aI17
aI3
aI17
aI5
aI3
aI18
aI7
aI16
aI17
aI18
aI5
aI2
aI19
aI19
aI16
aI5
aI18
aI14
aI7
aI17
aI3
aI8
aI15
aI17
aI6
aI3
aI14
aI3
aI10
aI7
aI12
aI6
aI7
aI15
aI18
aI12
aI19
aI3
aI15
aI10
aI19
aI19
aI5
aI19
aI12
aI3
aI4
aI18
aI2
aI12
aI5
aI10
aI16
aI17
aI14
aI7
aI19
aI4
aI18
aI6
aI8
aI7
aI18
aI14
aI6
aI5
aI17
aI5
aI18
aI10
aI6
aI7
aI10
aI7
aI8
aI12
aI2
aI2
aI2
aI3
aI2
aI6
aI4
aI14
aI2
aI6
aI15
aI8
aI10
aI16
aI15
aI5
aI18
aI5
aI14
aI4
a.